target datalayout = "e-m:e-p270:32:32-p271:32:32-p272:64:64-i64:64-i128:128-f80:128-n8:16:32:64-S128"
target triple = "x86_64-pc-linux-gnu"

%struct.Abc_Obj_t_ = type { ptr, ptr, i32, i32, %struct.Vec_Int_t_, %struct.Vec_Int_t_, %union.anon, %union.anon.0 }
%struct.Vec_Int_t_ = type { i32, i32, ptr }
%union.anon = type { ptr }
%union.anon.0 = type { ptr }

@.str = private unnamed_addr constant [56 x i8] c"The obj %d is not found among the fanins of obj %d ...\0A\00", align 1
@.str.1 = private unnamed_addr constant [57 x i8] c"The obj %d is not found among the fanouts of obj %d ...\0A\00", align 1

; Function Attrs: nounwind uwtable
define internal i32 @Vec_IntRemove(ptr noundef %0, i32 noundef %1) #0 {
  %3 = alloca i32, align 4
  %4 = alloca ptr, align 8
  %5 = alloca i32, align 4
  %6 = alloca i32, align 4
  store ptr %0, ptr %4, align 8
  store i32 %1, ptr %5, align 4
  store i32 0, ptr %6, align 4
  br label %7

7:                                                ; preds = %25, %2
  %8 = load i32, ptr %6, align 4
  %9 = load ptr, ptr %4, align 8
  %10 = getelementptr inbounds %struct.Vec_Int_t_, ptr %9, i32 0, i32 1
  %11 = load i32, ptr %10, align 4
  %12 = icmp slt i32 %8, %11
  br i1 %12, label %13, label %28

13:                                               ; preds = %7
  %14 = load ptr, ptr %4, align 8
  %15 = getelementptr inbounds %struct.Vec_Int_t_, ptr %14, i32 0, i32 2
  %16 = load ptr, ptr %15, align 8
  %17 = load i32, ptr %6, align 4
  %18 = sext i32 %17 to i64
  %19 = getelementptr inbounds i32, ptr %16, i64 %18
  %20 = load i32, ptr %19, align 4
  %21 = load i32, ptr %5, align 4
  %22 = icmp eq i32 %20, %21
  br i1 %22, label %23, label %24

23:                                               ; preds = %13
  br label %28

24:                                               ; preds = %13
  br label %25

25:                                               ; preds = %24
  %26 = load i32, ptr %6, align 4
  %27 = add nsw i32 %26, 1
  store i32 %27, ptr %6, align 4
  br label %7, !llvm.loop !6

28:                                               ; preds = %23, %7
  %29 = load i32, ptr %6, align 4
  %30 = load ptr, ptr %4, align 8
  %31 = getelementptr inbounds %struct.Vec_Int_t_, ptr %30, i32 0, i32 1
  %32 = load i32, ptr %31, align 4
  %33 = icmp eq i32 %29, %32
  br i1 %33, label %34, label %35

34:                                               ; preds = %28
  store i32 0, ptr %3, align 4
  br label %67

35:                                               ; preds = %28
  %36 = load i32, ptr %6, align 4
  %37 = add nsw i32 %36, 1
  store i32 %37, ptr %6, align 4
  br label %38

38:                                               ; preds = %59, %35
  %39 = load i32, ptr %6, align 4
  %40 = load ptr, ptr %4, align 8
  %41 = getelementptr inbounds %struct.Vec_Int_t_, ptr %40, i32 0, i32 1
  %42 = load i32, ptr %41, align 4
  %43 = icmp slt i32 %39, %42
  br i1 %43, label %44, label %62

44:                                               ; preds = %38
  %45 = load ptr, ptr %4, align 8
  %46 = getelementptr inbounds %struct.Vec_Int_t_, ptr %45, i32 0, i32 2
  %47 = load ptr, ptr %46, align 8
  %48 = load i32, ptr %6, align 4
  %49 = sext i32 %48 to i64
  %50 = getelementptr inbounds i32, ptr %47, i64 %49
  %51 = load i32, ptr %50, align 4
  %52 = load ptr, ptr %4, align 8
  %53 = getelementptr inbounds %struct.Vec_Int_t_, ptr %52, i32 0, i32 2
  %54 = load ptr, ptr %53, align 8
  %55 = load i32, ptr %6, align 4
  %56 = sub nsw i32 %55, 1
  %57 = sext i32 %56 to i64
  %58 = getelementptr inbounds i32, ptr %54, i64 %57
  store i32 %51, ptr %58, align 4
  br label %59

59:                                               ; preds = %44
  %60 = load i32, ptr %6, align 4
  %61 = add nsw i32 %60, 1
  store i32 %61, ptr %6, align 4
  br label %38, !llvm.loop !7

62:                                               ; preds = %38
  %63 = load ptr, ptr %4, align 8
  %64 = getelementptr inbounds %struct.Vec_Int_t_, ptr %63, i32 0, i32 1
  %65 = load i32, ptr %64, align 4
  %66 = add nsw i32 %65, -1
  store i32 %66, ptr %64, align 4
  store i32 1, ptr %3, align 4
  br label %67

67:                                               ; preds = %62, %34
  %68 = load i32, ptr %3, align 4
  ret i32 %68
}

; Function Attrs: nounwind uwtable
define void @Abc_ObjDeleteFanin(ptr noundef %0, ptr noundef %1) #0 {
  %3 = alloca ptr, align 8
  %4 = alloca ptr, align 8
  store ptr %0, ptr %3, align 8
  store ptr %1, ptr %4, align 8
  %5 = load ptr, ptr %3, align 8
  %6 = getelementptr inbounds %struct.Abc_Obj_t_, ptr %5, i32 0, i32 4
  %7 = load ptr, ptr %4, align 8
  %8 = getelementptr inbounds %struct.Abc_Obj_t_, ptr %7, i32 0, i32 2
  %9 = load i32, ptr %8, align 8
  %10 = call i32 @Vec_IntRemove(ptr noundef %6, i32 noundef %9)
  %11 = icmp ne i32 %10, 0
  br i1 %11, label %20, label %12

12:                                               ; preds = %2
  %13 = load ptr, ptr %4, align 8
  %14 = getelementptr inbounds %struct.Abc_Obj_t_, ptr %13, i32 0, i32 2
  %15 = load i32, ptr %14, align 8
  %16 = load ptr, ptr %3, align 8
  %17 = getelementptr inbounds %struct.Abc_Obj_t_, ptr %16, i32 0, i32 2
  %18 = load i32, ptr %17, align 8
  %19 = call i32 (ptr, ...) @printf(ptr noundef @.str, i32 noundef %15, i32 noundef %18)
  br label %36

20:                                               ; preds = %2
  %21 = load ptr, ptr %4, align 8
  %22 = getelementptr inbounds %struct.Abc_Obj_t_, ptr %21, i32 0, i32 5
  %23 = load ptr, ptr %3, align 8
  %24 = getelementptr inbounds %struct.Abc_Obj_t_, ptr %23, i32 0, i32 2
  %25 = load i32, ptr %24, align 8
  %26 = call i32 @Vec_IntRemove(ptr noundef %22, i32 noundef %25)
  %27 = icmp ne i32 %26, 0
  br i1 %27, label %36, label %28

28:                                               ; preds = %20
  %29 = load ptr, ptr %3, align 8
  %30 = getelementptr inbounds %struct.Abc_Obj_t_, ptr %29, i32 0, i32 2
  %31 = load i32, ptr %30, align 8
  %32 = load ptr, ptr %4, align 8
  %33 = getelementptr inbounds %struct.Abc_Obj_t_, ptr %32, i32 0, i32 2
  %34 = load i32, ptr %33, align 8
  %35 = call i32 (ptr, ...) @printf(ptr noundef @.str.1, i32 noundef %31, i32 noundef %34)
  br label %36

36:                                               ; preds = %28, %20, %12
  ret void
}