; Function Attrs: nofree nounwind uwtable
define void @Abc_ObjDeleteFanin(ptr noundef captures(none) %0, ptr noundef captures(none) %1) local_unnamed_addr #1 {
  %3 = getelementptr inbounds nuw i8, ptr %1, i64 16
  %4 = load i32, ptr %3, align 8
  %5 = getelementptr inbounds nuw i8, ptr %0, i64 28
  %6 = load i32, ptr %5, align 4
  %7 = icmp sgt i32 %6, 0
  br i1 %7, label %.lr.ph.i, label %._crit_edge.i

.lr.ph.i:                                         ; preds = %2
  %8 = getelementptr inbounds nuw i8, ptr %0, i64 32
  %9 = load ptr, ptr %8, align 8
  %wide.trip.count.i = zext nneg i32 %6 to i64
  br label %10

10:                                               ; preds = %14, %.lr.ph.i
  %indvars.iv.i = phi i64 [ 0, %.lr.ph.i ], [ %indvars.iv.next.i, %14 ]
  %11 = getelementptr inbounds nuw i32, ptr %9, i64 %indvars.iv.i
  %12 = load i32, ptr %11, align 4
  %13 = icmp eq i32 %12, %4
  br i1 %13, label %._crit_edge.loopexit.i, label %14

14:                                               ; preds = %10
  %indvars.iv.next.i = add nuw nsw i64 %indvars.iv.i, 1
  %exitcond.not.i = icmp eq i64 %indvars.iv.next.i, %wide.trip.count.i
  br i1 %exitcond.not.i, label %.loopexit32, label %10, !llvm.loop !6

._crit_edge.loopexit.i:                           ; preds = %10
  %15 = trunc nuw nsw i64 %indvars.iv.i to i32
  br label %._crit_edge.i

._crit_edge.i:                                    ; preds = %._crit_edge.loopexit.i, %2
  %.0.lcssa.i = phi i32 [ 0, %2 ], [ %15, %._crit_edge.loopexit.i ]
  %16 = icmp eq i32 %.0.lcssa.i, %6
  br i1 %16, label %.loopexit32, label %.preheader.i

.preheader.i:                                     ; preds = %._crit_edge.i
  %.126.i = add nuw nsw i32 %.0.lcssa.i, 1
  %17 = icmp slt i32 %.126.i, %6
  br i1 %17, label %.lr.ph29.i, label %.loopexit31

.lr.ph29.i:                                       ; preds = %.preheader.i
  %18 = getelementptr inbounds nuw i8, ptr %0, i64 32
  %19 = zext i32 %.126.i to i64
  br label %20

20:                                               ; preds = %20, %.lr.ph29.i
  %indvars.iv34.i = phi i64 [ %19, %.lr.ph29.i ], [ %indvars.iv.next35.i, %20 ]
  %.1.in27.i = phi i32 [ %.0.lcssa.i, %.lr.ph29.i ], [ %29, %20 ]
  %21 = load ptr, ptr %18, align 8
  %22 = getelementptr inbounds nuw i32, ptr %21, i64 %indvars.iv34.i
  %23 = load i32, ptr %22, align 4
  %24 = zext nneg i32 %.1.in27.i to i64
  %25 = getelementptr inbounds nuw i32, ptr %21, i64 %24
  store i32 %23, ptr %25, align 4
  %indvars.iv.next35.i = add nuw nsw i64 %indvars.iv34.i, 1
  %26 = load i32, ptr %5, align 4
  %27 = trunc nuw i64 %indvars.iv.next35.i to i32
  %28 = icmp sgt i32 %26, %27
  %29 = trunc nuw i64 %indvars.iv34.i to i32
  br i1 %28, label %20, label %.loopexit31, !llvm.loop !7

.loopexit32:                                      ; preds = %14, %._crit_edge.i
  %30 = getelementptr inbounds nuw i8, ptr %0, i64 16
  %31 = load i32, ptr %30, align 8
  %32 = tail call i32 (ptr, ...) @printf(ptr noundef nonnull dereferenceable(1) @.str, i32 noundef %4, i32 noundef %31)
  br label %64

.loopexit31:                                      ; preds = %20, %.preheader.i
  %.lcssa.i = phi i32 [ %6, %.preheader.i ], [ %26, %20 ]
  %33 = add nsw i32 %.lcssa.i, -1
  store i32 %33, ptr %5, align 4
  %34 = getelementptr inbounds nuw i8, ptr %0, i64 16
  %35 = load i32, ptr %34, align 8
  %36 = getelementptr inbounds nuw i8, ptr %1, i64 44
  %37 = load i32, ptr %36, align 4
  %38 = icmp sgt i32 %37, 0
  br i1 %38, label %.lr.ph.i20, label %._crit_edge.i9

.lr.ph.i20:                                       ; preds = %.loopexit31
  %39 = getelementptr inbounds nuw i8, ptr %1, i64 48
  %40 = load ptr, ptr %39, align 8
  %wide.trip.count.i21 = zext nneg i32 %37 to i64
  br label %41

41:                                               ; preds = %45, %.lr.ph.i20
  %indvars.iv.i22 = phi i64 [ 0, %.lr.ph.i20 ], [ %indvars.iv.next.i23, %45 ]
  %42 = getelementptr inbounds nuw i32, ptr %40, i64 %indvars.iv.i22
  %43 = load i32, ptr %42, align 4
  %44 = icmp eq i32 %43, %35
  br i1 %44, label %._crit_edge.loopexit.i25, label %45

45:                                               ; preds = %41
  %indvars.iv.next.i23 = add nuw nsw i64 %indvars.iv.i22, 1
  %exitcond.not.i24 = icmp eq i64 %indvars.iv.next.i23, %wide.trip.count.i21
  br i1 %exitcond.not.i24, label %.loopexit, label %41, !llvm.loop !6

._crit_edge.loopexit.i25:                         ; preds = %41
  %46 = trunc nuw nsw i64 %indvars.iv.i22 to i32
  br label %._crit_edge.i9

._crit_edge.i9:                                   ; preds = %._crit_edge.loopexit.i25, %.loopexit31
  %.0.lcssa.i10 = phi i32 [ 0, %.loopexit31 ], [ %46, %._crit_edge.loopexit.i25 ]
  %47 = icmp eq i32 %.0.lcssa.i10, %37
  br i1 %47, label %.loopexit, label %.preheader.i11

.preheader.i11:                                   ; preds = %._crit_edge.i9
  %.126.i12 = add nuw nsw i32 %.0.lcssa.i10, 1
  %48 = icmp slt i32 %.126.i12, %37
  br i1 %48, label %.lr.ph29.i16, label %Vec_IntRemove.exit26

.lr.ph29.i16:                                     ; preds = %.preheader.i11
  %49 = getelementptr inbounds nuw i8, ptr %1, i64 48
  %50 = zext i32 %.126.i12 to i64
  br label %51

51:                                               ; preds = %51, %.lr.ph29.i16
  %indvars.iv34.i17 = phi i64 [ %50, %.lr.ph29.i16 ], [ %indvars.iv.next35.i19, %51 ]
  %.1.in27.i18 = phi i32 [ %.0.lcssa.i10, %.lr.ph29.i16 ], [ %60, %51 ]
  %52 = load ptr, ptr %49, align 8
  %53 = getelementptr inbounds nuw i32, ptr %52, i64 %indvars.iv34.i17
  %54 = load i32, ptr %53, align 4
  %55 = zext nneg i32 %.1.in27.i18 to i64
  %56 = getelementptr inbounds nuw i32, ptr %52, i64 %55
  store i32 %54, ptr %56, align 4
  %indvars.iv.next35.i19 = add nuw nsw i64 %indvars.iv34.i17, 1
  %57 = load i32, ptr %36, align 4
  %58 = trunc nuw i64 %indvars.iv.next35.i19 to i32
  %59 = icmp sgt i32 %57, %58
  %60 = trunc nuw i64 %indvars.iv34.i17 to i32
  br i1 %59, label %51, label %Vec_IntRemove.exit26, !llvm.loop !7

Vec_IntRemove.exit26:                             ; preds = %51, %.preheader.i11
  %.lcssa.i14 = phi i32 [ %37, %.preheader.i11 ], [ %57, %51 ]
  %61 = add nsw i32 %.lcssa.i14, -1
  store i32 %61, ptr %36, align 4
  br label %64

.loopexit:                                        ; preds = %45, %._crit_edge.i9
  %62 = load i32, ptr %3, align 8
  %63 = tail call i32 (ptr, ...) @printf(ptr noundef nonnull dereferenceable(1) @.str.1, i32 noundef %35, i32 noundef %62)
  br label %64

64:                                               ; preds = %Vec_IntRemove.exit26, %.loopexit, %.loopexit32
  ret void
}